target datalayout = "e-m:e-p270:32:32-p271:32:32-p272:64:64-i64:64-i128:128-f80:128-n8:16:32:64-S128"
target triple = "x86_64-pc-linux-gnu"

%struct.mi_cache_slot_s = type { ptr, i64, i8, %struct.mi_commit_mask_s, %struct.mi_commit_mask_s, i64 }
%struct.mi_commit_mask_s = type { [16 x i64] }

@cache_available_large = internal global [16 x i64] [i64 -1, i64 -1, i64 -1, i64 -1, i64 -1, i64 -1, i64 -1, i64 -1, i64 -1, i64 -1, i64 -1, i64 -1, i64 -1, i64 -1, i64 -1, i64 -1], align 64
@cache_available = internal global [16 x i64] [i64 -1, i64 -1, i64 -1, i64 -1, i64 -1, i64 -1, i64 -1, i64 -1, i64 -1, i64 -1, i64 -1, i64 -1, i64 -1, i64 -1, i64 -1, i64 -1], align 64
@cache = internal global [1024 x %struct.mi_cache_slot_s] zeroinitializer, align 64
@cache_inuse = internal global [16 x i64] zeroinitializer, align 64
@_mi_numa_node_count = external global i64, align 8

; Function Attrs: inlinehint nounwind uwtable
define internal i64 @mi_bitmap_index_bit(i64 noundef %0) #2 {
  %2 = alloca i64, align 8
  store i64 %0, ptr %2, align 8, !tbaa !3
  %3 = load i64, ptr %2, align 8, !tbaa !3
  ret i64 %3
}

; Function Attrs: inlinehint nounwind uwtable
define internal i64 @_mi_os_numa_node_count() #2 {
  %1 = alloca i64, align 8
  %2 = alloca i64, align 8
  %3 = alloca i64, align 8
  %4 = alloca i32, align 4
  call void @llvm.lifetime.start.p0(i64 8, ptr %2) #8
  %5 = load atomic i64, ptr @_mi_numa_node_count monotonic, align 8
  store i64 %5, ptr %3, align 8
  %6 = load i64, ptr %3, align 8, !tbaa !3
  store i64 %6, ptr %2, align 8, !tbaa !3
  %7 = load i64, ptr %2, align 8, !tbaa !3
  %8 = icmp ugt i64 %7, 0
  %9 = xor i1 %8, true
  %10 = xor i1 %9, true
  %11 = zext i1 %10 to i32
  %12 = sext i32 %11 to i64
  %13 = call i64 @llvm.expect.i64(i64 %12, i64 1)
  %14 = icmp ne i64 %13, 0
  br i1 %14, label %15, label %17

15:                                               ; preds = %0
  %16 = load i64, ptr %2, align 8, !tbaa !3
  store i64 %16, ptr %1, align 8
  store i32 1, ptr %4, align 4
  br label %19

17:                                               ; preds = %0
  %18 = call i64 @_mi_os_numa_node_count_get()
  store i64 %18, ptr %1, align 8
  store i32 1, ptr %4, align 4
  br label %19

19:                                               ; preds = %17, %15
  call void @llvm.lifetime.end.p0(i64 8, ptr %2) #8
  %20 = load i64, ptr %1, align 8
  ret i64 %20
}

; Function Attrs: inlinehint nounwind uwtable
define internal i32 @_mi_os_numa_node(ptr noundef %0) #2 {
  %2 = alloca i32, align 4
  %3 = alloca ptr, align 8
  %4 = alloca i64, align 8
  store ptr %0, ptr %3, align 8, !tbaa !14
  %5 = load atomic i64, ptr @_mi_numa_node_count monotonic, align 8
  store i64 %5, ptr %4, align 8
  %6 = load i64, ptr %4, align 8, !tbaa !3
  %7 = icmp eq i64 %6, 1
  %8 = xor i1 %7, true
  %9 = xor i1 %8, true
  %10 = zext i1 %9 to i32
  %11 = sext i32 %10 to i64
  %12 = call i64 @llvm.expect.i64(i64 %11, i64 1)
  %13 = icmp ne i64 %12, 0
  br i1 %13, label %14, label %15

14:                                               ; preds = %1
  store i32 0, ptr %2, align 4
  br label %18

15:                                               ; preds = %1
  %16 = load ptr, ptr %3, align 8, !tbaa !14
  %17 = call i32 @_mi_os_numa_node_get(ptr noundef %16)
  store i32 %17, ptr %2, align 4
  br label %18

18:                                               ; preds = %15, %14
  %19 = load i32, ptr %2, align 4
  ret i32 %19
}

; Function Attrs: noinline nounwind uwtable
define hidden ptr @_mi_segment_cache_pop(i64 noundef %0, ptr noundef %1, ptr noundef %2, ptr noundef %3, ptr noundef %4, ptr noundef %5, ptr noundef %6, ptr noundef %7) #0 {
  %9 = alloca ptr, align 8
  %10 = alloca i64, align 8
  %11 = alloca ptr, align 8
  %12 = alloca ptr, align 8
  %13 = alloca ptr, align 8
  %14 = alloca ptr, align 8
  %15 = alloca ptr, align 8
  %16 = alloca ptr, align 8
  %17 = alloca ptr, align 8
  %18 = alloca i32, align 4
  %19 = alloca i64, align 8
  %20 = alloca i64, align 8
  %21 = alloca i8, align 1
  %22 = alloca i32, align 4
  %23 = alloca ptr, align 8
  %24 = alloca ptr, align 8
  %25 = alloca i64, align 8
  store i64 %0, ptr %10, align 8, !tbaa !3
  store ptr %1, ptr %11, align 8, !tbaa !7
  store ptr %2, ptr %12, align 8, !tbaa !7
  store ptr %3, ptr %13, align 8, !tbaa !10
  store ptr %4, ptr %14, align 8, !tbaa !10
  store ptr %5, ptr %15, align 8, !tbaa !10
  store ptr %6, ptr %16, align 8, !tbaa !12
  store ptr %7, ptr %17, align 8, !tbaa !14
  %26 = load i64, ptr %10, align 8, !tbaa !3
  %27 = icmp ne i64 %26, 67108864
  br i1 %27, label %28, label %29

28:                                               ; preds = %8
  store ptr null, ptr %9, align 8
  br label %106

29:                                               ; preds = %8
  call void @llvm.lifetime.start.p0(i64 4, ptr %18) #8
  %30 = load ptr, ptr %17, align 8, !tbaa !14
  %31 = call i32 @_mi_os_numa_node(ptr noundef %30)
  store i32 %31, ptr %18, align 4, !tbaa !16
  call void @llvm.lifetime.start.p0(i64 8, ptr %19) #8
  store i64 0, ptr %19, align 8, !tbaa !3
  %32 = load i32, ptr %18, align 4, !tbaa !16
  %33 = icmp sgt i32 %32, 0
  br i1 %33, label %34, label %44

34:                                               ; preds = %29
  %35 = call i64 @_mi_os_numa_node_count()
  %36 = udiv i64 16, %35
  %37 = load i32, ptr %18, align 4, !tbaa !16
  %38 = sext i32 %37 to i64
  %39 = mul i64 %36, %38
  store i64 %39, ptr %19, align 8, !tbaa !3
  %40 = load i64, ptr %19, align 8, !tbaa !3
  %41 = icmp uge i64 %40, 16
  br i1 %41, label %42, label %43

42:                                               ; preds = %34
  store i64 0, ptr %19, align 8, !tbaa !3
  br label %43

43:                                               ; preds = %42, %34
  br label %44

44:                                               ; preds = %43, %29
  call void @llvm.lifetime.start.p0(i64 8, ptr %20) #8
  store i64 0, ptr %20, align 8, !tbaa !3
  call void @llvm.lifetime.start.p0(i64 1, ptr %21) #8
  store i8 0, ptr %21, align 1, !tbaa !18
  %45 = load ptr, ptr %13, align 8, !tbaa !10
  %46 = load i8, ptr %45, align 1, !tbaa !18, !range !20, !noundef !21
  %47 = trunc i8 %46 to i1
  br i1 %47, label %48, label %57

48:                                               ; preds = %44
  %49 = load i64, ptr %19, align 8, !tbaa !3
  %50 = call zeroext i1 @_mi_bitmap_try_find_from_claim(ptr noundef @cache_available_large, i64 noundef 16, i64 noundef %49, i64 noundef 1, ptr noundef %20)
  %51 = zext i1 %50 to i8
  store i8 %51, ptr %21, align 1, !tbaa !18
  %52 = load i8, ptr %21, align 1, !tbaa !18, !range !20, !noundef !21
  %53 = trunc i8 %52 to i1
  br i1 %53, label %54, label %56

54:                                               ; preds = %48
  %55 = load ptr, ptr %13, align 8, !tbaa !10
  store i8 1, ptr %55, align 1, !tbaa !18
  br label %56

56:                                               ; preds = %54, %48
  br label %57

57:                                               ; preds = %56, %44
  %58 = load i8, ptr %21, align 1, !tbaa !18, !range !20, !noundef !21
  %59 = trunc i8 %58 to i1
  br i1 %59, label %69, label %60

60:                                               ; preds = %57
  %61 = load i64, ptr %19, align 8, !tbaa !3
  %62 = call zeroext i1 @_mi_bitmap_try_find_from_claim(ptr noundef @cache_available, i64 noundef 16, i64 noundef %61, i64 noundef 1, ptr noundef %20)
  %63 = zext i1 %62 to i8
  store i8 %63, ptr %21, align 1, !tbaa !18
  %64 = load i8, ptr %21, align 1, !tbaa !18, !range !20, !noundef !21
  %65 = trunc i8 %64 to i1
  br i1 %65, label %66, label %68

66:                                               ; preds = %60
  %67 = load ptr, ptr %13, align 8, !tbaa !10
  store i8 0, ptr %67, align 1, !tbaa !18
  br label %68

68:                                               ; preds = %66, %60
  br label %69

69:                                               ; preds = %68, %57
  %70 = load i8, ptr %21, align 1, !tbaa !18, !range !20, !noundef !21
  %71 = trunc i8 %70 to i1
  br i1 %71, label %73, label %72

72:                                               ; preds = %69
  store ptr null, ptr %9, align 8
  store i32 1, ptr %22, align 4
  br label %105

73:                                               ; preds = %69
  call void @llvm.lifetime.start.p0(i64 8, ptr %23) #8
  %74 = load i64, ptr %20, align 8, !tbaa !3
  %75 = call i64 @mi_bitmap_index_bit(i64 noundef %74)
  %76 = getelementptr inbounds nuw [1024 x %struct.mi_cache_slot_s], ptr @cache, i64 0, i64 %75
  store ptr %76, ptr %23, align 8, !tbaa !22
  call void @llvm.lifetime.start.p0(i64 8, ptr %24) #8
  %77 = load ptr, ptr %23, align 8, !tbaa !22
  %78 = getelementptr inbounds nuw %struct.mi_cache_slot_s, ptr %77, i32 0, i32 0
  %79 = load ptr, ptr %78, align 8, !tbaa !24
  store ptr %79, ptr %24, align 8, !tbaa !27
  %80 = load ptr, ptr %23, align 8, !tbaa !22
  %81 = getelementptr inbounds nuw %struct.mi_cache_slot_s, ptr %80, i32 0, i32 1
  %82 = load i64, ptr %81, align 8, !tbaa !28
  %83 = load ptr, ptr %16, align 8, !tbaa !12
  store i64 %82, ptr %83, align 8, !tbaa !3
  %84 = load ptr, ptr %23, align 8, !tbaa !22
  %85 = getelementptr inbounds nuw %struct.mi_cache_slot_s, ptr %84, i32 0, i32 2
  %86 = load i8, ptr %85, align 8, !tbaa !29, !range !20, !noundef !21
  %87 = trunc i8 %86 to i1
  %88 = load ptr, ptr %14, align 8, !tbaa !10
  %89 = zext i1 %87 to i8
  store i8 %89, ptr %88, align 1, !tbaa !18
  %90 = load ptr, ptr %15, align 8, !tbaa !10
  store i8 0, ptr %90, align 1, !tbaa !18
  %91 = load ptr, ptr %11, align 8, !tbaa !7
  %92 = load ptr, ptr %23, align 8, !tbaa !22
  %93 = getelementptr inbounds nuw %struct.mi_cache_slot_s, ptr %92, i32 0, i32 3
  call void @llvm.memcpy.p0.p0.i64(ptr align 8 %91, ptr align 8 %93, i64 128, i1 false), !tbaa.struct !30
  %94 = load ptr, ptr %12, align 8, !tbaa !7
  %95 = load ptr, ptr %23, align 8, !tbaa !22
  %96 = getelementptr inbounds nuw %struct.mi_cache_slot_s, ptr %95, i32 0, i32 4
  call void @llvm.memcpy.p0.p0.i64(ptr align 8 %94, ptr align 8 %96, i64 128, i1 false), !tbaa.struct !30
  %97 = load ptr, ptr %23, align 8, !tbaa !22
  %98 = getelementptr inbounds nuw %struct.mi_cache_slot_s, ptr %97, i32 0, i32 0
  store ptr null, ptr %98, align 8, !tbaa !24
  %99 = load ptr, ptr %23, align 8, !tbaa !22
  %100 = getelementptr inbounds nuw %struct.mi_cache_slot_s, ptr %99, i32 0, i32 5
  store i64 0, ptr %25, align 8, !tbaa !3
  %101 = load i64, ptr %25, align 8
  store atomic i64 %101, ptr %100 release, align 8
  %102 = load i64, ptr %20, align 8, !tbaa !3
  %103 = call zeroext i1 @_mi_bitmap_unclaim(ptr noundef @cache_inuse, i64 noundef 16, i64 noundef 1, i64 noundef %102)
  %104 = load ptr, ptr %24, align 8, !tbaa !27
  store ptr %104, ptr %9, align 8
  store i32 1, ptr %22, align 4
  call void @llvm.lifetime.end.p0(i64 8, ptr %24) #8
  call void @llvm.lifetime.end.p0(i64 8, ptr %23) #8
  br label %105

105:                                              ; preds = %73, %72
  call void @llvm.lifetime.end.p0(i64 1, ptr %21) #8
  call void @llvm.lifetime.end.p0(i64 8, ptr %20) #8
  call void @llvm.lifetime.end.p0(i64 8, ptr %19) #8
  call void @llvm.lifetime.end.p0(i64 4, ptr %18) #8
  br label %106

106:                                              ; preds = %105, %28
  %107 = load ptr, ptr %9, align 8
  ret ptr %107
}