; Function Attrs: noinline nounwind uwtable
define hidden ptr @_mi_segment_cache_pop(i64 noundef %0, ptr noundef writeonly captures(none) %1, ptr noundef writeonly captures(none) %2, ptr noundef captures(none) %3, ptr noundef writeonly captures(none) %4, ptr noundef writeonly captures(none) %5, ptr noundef writeonly captures(none) %6, ptr noundef %7) local_unnamed_addr #0 {
  %9 = alloca i64, align 8
  %.not = icmp eq i64 %0, 67108864
  br i1 %.not, label %10, label %42

10:                                               ; preds = %8
  %11 = load atomic i64, ptr @_mi_numa_node_count monotonic, align 8
  %12 = icmp eq i64 %11, 1
  br i1 %12, label %_mi_os_numa_node.exit.thread, label %_mi_os_numa_node.exit, !prof !3

_mi_os_numa_node.exit:                            ; preds = %10
  %13 = tail call i32 @_mi_os_numa_node_get(ptr noundef %7) #9
  %14 = icmp sgt i32 %13, 0
  br i1 %14, label %15, label %_mi_os_numa_node.exit.thread

15:                                               ; preds = %_mi_os_numa_node.exit
  %16 = load atomic i64, ptr @_mi_numa_node_count monotonic, align 8
  %.not.i = icmp eq i64 %16, 0
  br i1 %.not.i, label %17, label %_mi_os_numa_node_count.exit, !prof !4

17:                                               ; preds = %15
  %18 = tail call i64 @_mi_os_numa_node_count_get() #9
  br label %_mi_os_numa_node_count.exit

_mi_os_numa_node_count.exit:                      ; preds = %15, %17
  %.0.i32 = phi i64 [ %18, %17 ], [ %16, %15 ]
  %19 = udiv i64 16, %.0.i32
  %20 = zext nneg i32 %13 to i64
  %21 = mul nuw nsw i64 %19, %20
  %22 = icmp samesign ugt i64 %21, 15
  %spec.store.select = select i1 %22, i64 0, i64 %21
  br label %_mi_os_numa_node.exit.thread

_mi_os_numa_node.exit.thread:                     ; preds = %10, %_mi_os_numa_node_count.exit, %_mi_os_numa_node.exit
  %.028 = phi i64 [ %spec.store.select, %_mi_os_numa_node_count.exit ], [ 0, %_mi_os_numa_node.exit ], [ 0, %10 ]
  call void @llvm.lifetime.start.p0(i64 8, ptr nonnull %9) #9
  store i64 0, ptr %9, align 8, !tbaa !5
  %23 = load i8, ptr %3, align 1, !tbaa !9, !range !11, !noundef !12
  %24 = trunc nuw i8 %23 to i1
  br i1 %24, label %25, label %27

25:                                               ; preds = %_mi_os_numa_node.exit.thread
  %26 = call zeroext i1 @_mi_bitmap_try_find_from_claim(ptr noundef nonnull @cache_available_large, i64 noundef 16, i64 noundef %.028, i64 noundef 1, ptr noundef nonnull %9) #9
  br i1 %26, label %29, label %27

27:                                               ; preds = %25, %_mi_os_numa_node.exit.thread
  %28 = call zeroext i1 @_mi_bitmap_try_find_from_claim(ptr noundef nonnull @cache_available, i64 noundef 16, i64 noundef %.028, i64 noundef 1, ptr noundef nonnull %9) #9
  br i1 %28, label %29, label %41

29:                                               ; preds = %27, %25
  %storemerge = phi i8 [ 1, %25 ], [ 0, %27 ]
  store i8 %storemerge, ptr %3, align 1, !tbaa !9
  %30 = load i64, ptr %9, align 8, !tbaa !5
  %31 = getelementptr inbounds nuw [1024 x %struct.mi_cache_slot_s], ptr @cache, i64 0, i64 %30
  %32 = load ptr, ptr %31, align 32, !tbaa !13
  %33 = getelementptr inbounds nuw i8, ptr %31, i64 8
  %34 = load i64, ptr %33, align 8, !tbaa !17
  store i64 %34, ptr %6, align 8, !tbaa !5
  %35 = getelementptr inbounds nuw i8, ptr %31, i64 16
  %36 = load i8, ptr %35, align 16, !tbaa !18, !range !11, !noundef !12
  store i8 %36, ptr %4, align 1, !tbaa !9
  store i8 0, ptr %5, align 1, !tbaa !9
  %37 = getelementptr inbounds nuw i8, ptr %31, i64 24
  call void @llvm.memcpy.p0.p0.i64(ptr noundef nonnull align 8 dereferenceable(128) %1, ptr noundef nonnull align 8 dereferenceable(128) %37, i64 128, i1 false), !tbaa.struct !19
  %38 = getelementptr inbounds nuw i8, ptr %31, i64 152
  call void @llvm.memcpy.p0.p0.i64(ptr noundef nonnull align 8 dereferenceable(128) %2, ptr noundef nonnull align 8 dereferenceable(128) %38, i64 128, i1 false), !tbaa.struct !19
  store ptr null, ptr %31, align 32, !tbaa !13
  %39 = getelementptr inbounds nuw i8, ptr %31, i64 280
  store atomic i64 0, ptr %39 release, align 8
  %40 = call zeroext i1 @_mi_bitmap_unclaim(ptr noundef nonnull @cache_inuse, i64 noundef 16, i64 noundef 1, i64 noundef %30) #9
  br label %41

41:                                               ; preds = %27, %29
  %.1 = phi ptr [ %32, %29 ], [ null, %27 ]
  call void @llvm.lifetime.end.p0(i64 8, ptr nonnull %9) #9
  br label %42

42:                                               ; preds = %8, %41
  %.0 = phi ptr [ %.1, %41 ], [ null, %8 ]
  ret ptr %.0
}